target datalayout = "e-m:e-p270:32:32-p271:32:32-p272:64:64-i64:64-i128:128-f80:128-n8:16:32:64-S128"
target triple = "x86_64-pc-linux-gnu"

; Function Attrs: alwaysinline nounwind willreturn memory(none) uwtable
define internal zeroext i16 @av_bswap16(i16 noundef zeroext %0) #3 {
  %2 = alloca i16, align 2
  store i16 %0, ptr %2, align 2, !tbaa !22
  %3 = load i16, ptr %2, align 2, !tbaa !22
  %4 = zext i16 %3 to i32
  %5 = ashr i32 %4, 8
  %6 = load i16, ptr %2, align 2, !tbaa !22
  %7 = zext i16 %6 to i32
  %8 = shl i32 %7, 8
  %9 = or i32 %5, %8
  %10 = trunc i32 %9 to i16
  store i16 %10, ptr %2, align 2, !tbaa !22
  %11 = load i16, ptr %2, align 2, !tbaa !22
  ret i16 %11
}

; Function Attrs: nounwind uwtable
define void @x2rgb10tobgr48_bswap(ptr noundef %0, ptr noundef %1, i32 noundef %2) #0 {
  %4 = alloca ptr, align 8
  %5 = alloca ptr, align 8
  %6 = alloca i32, align 4
  %7 = alloca ptr, align 8
  %8 = alloca ptr, align 8
  %9 = alloca i32, align 4
  %10 = alloca i32, align 4
  %11 = alloca i32, align 4
  %12 = alloca i32, align 4
  store ptr %0, ptr %4, align 8, !tbaa !4
  store ptr %1, ptr %5, align 8, !tbaa !4
  store i32 %2, ptr %6, align 4, !tbaa !9
  call void @llvm.lifetime.start.p0(i64 8, ptr %7) #5
  %13 = load ptr, ptr %5, align 8, !tbaa !4
  store ptr %13, ptr %7, align 8, !tbaa !20
  call void @llvm.lifetime.start.p0(i64 8, ptr %8) #5
  %14 = load ptr, ptr %4, align 8, !tbaa !4
  store ptr %14, ptr %8, align 8, !tbaa !11
  call void @llvm.lifetime.start.p0(i64 4, ptr %9) #5
  call void @llvm.lifetime.start.p0(i64 4, ptr %10) #5
  %15 = load i32, ptr %6, align 4, !tbaa !9
  %16 = ashr i32 %15, 2
  store i32 %16, ptr %10, align 4, !tbaa !9
  call void @llvm.lifetime.start.p0(i64 4, ptr %11) #5
  store i32 0, ptr %9, align 4, !tbaa !9
  br label %17

17:                                               ; preds = %80, %3
  %18 = load i32, ptr %9, align 4, !tbaa !9
  %19 = load i32, ptr %10, align 4, !tbaa !9
  %20 = icmp slt i32 %18, %19
  br i1 %20, label %21, label %83

21:                                               ; preds = %17
  call void @llvm.lifetime.start.p0(i64 4, ptr %12) #5
  %22 = load ptr, ptr %8, align 8, !tbaa !11
  %23 = load i32, ptr %9, align 4, !tbaa !9
  %24 = sext i32 %23 to i64
  %25 = getelementptr inbounds i32, ptr %22, i64 %24
  %26 = load i32, ptr %25, align 1, !tbaa !13
  store i32 %26, ptr %12, align 4, !tbaa !9
  %27 = load i32, ptr %12, align 4, !tbaa !9
  %28 = and i32 %27, 1023
  store i32 %28, ptr %11, align 4, !tbaa !9
  %29 = load i32, ptr %11, align 4, !tbaa !9
  %30 = shl i32 %29, 6
  %31 = load i32, ptr %11, align 4, !tbaa !9
  %32 = lshr i32 %31, 4
  %33 = or i32 %30, %32
  %34 = trunc i32 %33 to i16
  %35 = call zeroext i16 @av_bswap16(i16 noundef zeroext %34) #7
  %36 = zext i16 %35 to i32
  %37 = trunc i32 %36 to i16
  %38 = load ptr, ptr %7, align 8, !tbaa !20
  %39 = load i32, ptr %9, align 4, !tbaa !9
  %40 = mul nsw i32 3, %39
  %41 = add nsw i32 %40, 0
  %42 = sext i32 %41 to i64
  %43 = getelementptr inbounds i16, ptr %38, i64 %42
  store i16 %37, ptr %43, align 2, !tbaa !22
  %44 = load i32, ptr %12, align 4, !tbaa !9
  %45 = lshr i32 %44, 10
  %46 = and i32 %45, 1023
  store i32 %46, ptr %11, align 4, !tbaa !9
  %47 = load i32, ptr %11, align 4, !tbaa !9
  %48 = shl i32 %47, 6
  %49 = load i32, ptr %11, align 4, !tbaa !9
  %50 = lshr i32 %49, 4
  %51 = or i32 %48, %50
  %52 = trunc i32 %51 to i16
  %53 = call zeroext i16 @av_bswap16(i16 noundef zeroext %52) #7
  %54 = zext i16 %53 to i32
  %55 = trunc i32 %54 to i16
  %56 = load ptr, ptr %7, align 8, !tbaa !20
  %57 = load i32, ptr %9, align 4, !tbaa !9
  %58 = mul nsw i32 3, %57
  %59 = add nsw i32 %58, 1
  %60 = sext i32 %59 to i64
  %61 = getelementptr inbounds i16, ptr %56, i64 %60
  store i16 %55, ptr %61, align 2, !tbaa !22
  %62 = load i32, ptr %12, align 4, !tbaa !9
  %63 = lshr i32 %62, 20
  %64 = and i32 %63, 1023
  store i32 %64, ptr %11, align 4, !tbaa !9
  %65 = load i32, ptr %11, align 4, !tbaa !9
  %66 = shl i32 %65, 6
  %67 = load i32, ptr %11, align 4, !tbaa !9
  %68 = lshr i32 %67, 4
  %69 = or i32 %66, %68
  %70 = trunc i32 %69 to i16
  %71 = call zeroext i16 @av_bswap16(i16 noundef zeroext %70) #7
  %72 = zext i16 %71 to i32
  %73 = trunc i32 %72 to i16
  %74 = load ptr, ptr %7, align 8, !tbaa !20
  %75 = load i32, ptr %9, align 4, !tbaa !9
  %76 = mul nsw i32 3, %75
  %77 = add nsw i32 %76, 2
  %78 = sext i32 %77 to i64
  %79 = getelementptr inbounds i16, ptr %74, i64 %78
  store i16 %73, ptr %79, align 2, !tbaa !22
  call void @llvm.lifetime.end.p0(i64 4, ptr %12) #5
  br label %80

80:                                               ; preds = %21
  %81 = load i32, ptr %9, align 4, !tbaa !9
  %82 = add nsw i32 %81, 1
  store i32 %82, ptr %9, align 4, !tbaa !9
  br label %17, !llvm.loop !49

83:                                               ; preds = %17
  call void @llvm.lifetime.end.p0(i64 4, ptr %11) #5
  call void @llvm.lifetime.end.p0(i64 4, ptr %10) #5
  call void @llvm.lifetime.end.p0(i64 4, ptr %9) #5
  call void @llvm.lifetime.end.p0(i64 8, ptr %8) #5
  call void @llvm.lifetime.end.p0(i64 8, ptr %7) #5
  ret void
}